target datalayout = "e-m:e-p270:32:32-p271:32:32-p272:64:64-i64:64-i128:128-f80:128-n8:16:32:64-S128"
target triple = "x86_64-pc-linux-gnu"

%struct.strvec = type { ptr, i64, i64 }
%struct.credential_capability = type { i8, [3 x i8] }
%struct.credential_cache_entry = type { %struct.credential, i64 }
%struct.credential = type { %struct.string_list, %struct.strvec, %struct.strvec, %struct.strvec, i16, [2 x i8], %struct.credential_capability, %struct.credential_capability, ptr, ptr, ptr, ptr, ptr, ptr, ptr, i64, ptr }
%struct.string_list = type { ptr, i64, i64, i8, ptr }
%struct.timeval = type { i64, i64 }

@entries_nr = internal global i32 0, align 4
@entries = internal global ptr null, align 8
@entries_alloc = internal global i32 0, align 4
@.str.38 = private unnamed_addr constant [27 x i8] c"size_t overflow: %lu * %lu\00", align 1

; Function Attrs: inlinehint nounwind uwtable
define internal i64 @git_time(ptr noundef %0) #3 {
  %2 = alloca ptr, align 8
  %3 = alloca %struct.timeval, align 8
  store ptr %0, ptr %2, align 8, !tbaa !63
  call void @llvm.lifetime.start.p0(i64 16, ptr %3) #12
  %4 = call i32 @gettimeofday(ptr noundef %3, ptr noundef null) #12
  %5 = load ptr, ptr %2, align 8, !tbaa !63
  %6 = icmp ne ptr %5, null
  br i1 %6, label %7, label %11

7:                                                ; preds = %1
  %8 = getelementptr inbounds nuw %struct.timeval, ptr %3, i32 0, i32 0
  %9 = load i64, ptr %8, align 8, !tbaa !65
  %10 = load ptr, ptr %2, align 8, !tbaa !63
  store i64 %9, ptr %10, align 8, !tbaa !35
  br label %11

11:                                               ; preds = %7, %1
  %12 = getelementptr inbounds nuw %struct.timeval, ptr %3, i32 0, i32 0
  %13 = load i64, ptr %12, align 8, !tbaa !65
  call void @llvm.lifetime.end.p0(i64 16, ptr %3) #12
  ret i64 %13
}

; Function Attrs: inlinehint nounwind uwtable
define internal i64 @st_mult(i64 noundef %0, i64 noundef %1) #3 {
  %3 = alloca i64, align 8
  %4 = alloca i64, align 8
  store i64 %0, ptr %3, align 8, !tbaa !35
  store i64 %1, ptr %4, align 8, !tbaa !35
  %5 = load i64, ptr %3, align 8, !tbaa !35
  %6 = icmp ne i64 %5, 0
  br i1 %6, label %7, label %15

7:                                                ; preds = %2
  %8 = load i64, ptr %4, align 8, !tbaa !35
  %9 = load i64, ptr %3, align 8, !tbaa !35
  %10 = udiv i64 -1, %9
  %11 = icmp ugt i64 %8, %10
  br i1 %11, label %12, label %15

12:                                               ; preds = %7
  %13 = load i64, ptr %3, align 8, !tbaa !35
  %14 = load i64, ptr %4, align 8, !tbaa !35
  call void (ptr, ...) @die(ptr noundef @.str.38, i64 noundef %13, i64 noundef %14) #13
  unreachable

15:                                               ; preds = %7, %2
  %16 = load i64, ptr %3, align 8, !tbaa !35
  %17 = load i64, ptr %4, align 8, !tbaa !35
  %18 = mul i64 %16, %17
  ret i64 %18
}

; Function Attrs: nounwind uwtable
define internal void @cache_credential(ptr noundef %0, i32 noundef %1) #0 {
  %3 = alloca ptr, align 8
  %4 = alloca i32, align 4
  %5 = alloca ptr, align 8
  store ptr %0, ptr %3, align 8, !tbaa !67
  store i32 %1, ptr %4, align 4, !tbaa !4
  call void @llvm.lifetime.start.p0(i64 8, ptr %5) #12
  br label %6

6:                                                ; preds = %2
  %7 = load i32, ptr @entries_nr, align 4, !tbaa !4
  %8 = add nsw i32 %7, 1
  %9 = load i32, ptr @entries_alloc, align 4, !tbaa !4
  %10 = icmp sgt i32 %8, %9
  br i1 %10, label %11, label %33

11:                                               ; preds = %6
  %12 = load i32, ptr @entries_alloc, align 4, !tbaa !4
  %13 = add nsw i32 %12, 16
  %14 = mul nsw i32 %13, 3
  %15 = sdiv i32 %14, 2
  %16 = load i32, ptr @entries_nr, align 4, !tbaa !4
  %17 = add nsw i32 %16, 1
  %18 = icmp slt i32 %15, %17
  br i1 %18, label %19, label %22

19:                                               ; preds = %11
  %20 = load i32, ptr @entries_nr, align 4, !tbaa !4
  %21 = add nsw i32 %20, 1
  store i32 %21, ptr @entries_alloc, align 4, !tbaa !4
  br label %27

22:                                               ; preds = %11
  %23 = load i32, ptr @entries_alloc, align 4, !tbaa !4
  %24 = add nsw i32 %23, 16
  %25 = mul nsw i32 %24, 3
  %26 = sdiv i32 %25, 2
  store i32 %26, ptr @entries_alloc, align 4, !tbaa !4
  br label %27

27:                                               ; preds = %22, %19
  %28 = load ptr, ptr @entries, align 8, !tbaa !41
  %29 = load i32, ptr @entries_alloc, align 4, !tbaa !4
  %30 = sext i32 %29 to i64
  %31 = call i64 @st_mult(i64 noundef 208, i64 noundef %30)
  %32 = call ptr @xrealloc(ptr noundef %28, i64 noundef %31)
  store ptr %32, ptr @entries, align 8, !tbaa !41
  br label %33

33:                                               ; preds = %27, %6
  br label %34

34:                                               ; preds = %33
  br label %35

35:                                               ; preds = %34
  %36 = load ptr, ptr @entries, align 8, !tbaa !41
  %37 = load i32, ptr @entries_nr, align 4, !tbaa !4
  %38 = add nsw i32 %37, 1
  store i32 %38, ptr @entries_nr, align 4, !tbaa !4
  %39 = sext i32 %37 to i64
  %40 = getelementptr inbounds %struct.credential_cache_entry, ptr %36, i64 %39
  store ptr %40, ptr %5, align 8, !tbaa !41
  %41 = load ptr, ptr %5, align 8, !tbaa !41
  %42 = getelementptr inbounds nuw %struct.credential_cache_entry, ptr %41, i32 0, i32 0
  %43 = load ptr, ptr %3, align 8, !tbaa !67
  call void @llvm.memcpy.p0.p0.i64(ptr align 8 %42, ptr align 8 %43, i64 200, i1 false)
  %44 = load ptr, ptr %3, align 8, !tbaa !67
  call void @llvm.memset.p0.i64(ptr align 8 %44, i8 0, i64 200, i1 false)
  %45 = call i64 @git_time(ptr noundef null)
  %46 = load i32, ptr %4, align 4, !tbaa !4
  %47 = sext i32 %46 to i64
  %48 = add nsw i64 %45, %47
  %49 = load ptr, ptr %5, align 8, !tbaa !41
  %50 = getelementptr inbounds nuw %struct.credential_cache_entry, ptr %49, i32 0, i32 1
  store i64 %48, ptr %50, align 8, !tbaa !43
  call void @llvm.lifetime.end.p0(i64 8, ptr %5) #12
  ret void
}