; Function Attrs: nounwind uwtable
define internal fastcc void @cache_credential(ptr noundef nonnull captures(none) %0, i32 noundef %1) unnamed_addr #0 {
  %3 = alloca %struct.timeval, align 8
  %4 = load i32, ptr @entries_nr, align 4, !tbaa !4
  %5 = load i32, ptr @entries_alloc, align 4, !tbaa !4
  %.not = icmp slt i32 %4, %5
  br i1 %.not, label %._crit_edge, label %6

._crit_edge:                                      ; preds = %2
  %.pre = load ptr, ptr @entries, align 8, !tbaa !32
  br label %17

6:                                                ; preds = %2
  %7 = add nsw i32 %4, 1
  %8 = mul i32 %5, 3
  %9 = add i32 %8, 48
  %10 = sdiv i32 %9, 2
  %.not6 = icmp sgt i32 %10, %4
  %. = select i1 %.not6, i32 %10, i32 %7
  store i32 %., ptr @entries_alloc, align 4, !tbaa !4
  %11 = sext i32 %. to i64
  %12 = icmp slt i32 %., 0
  br i1 %12, label %13, label %st_mult.exit

13:                                               ; preds = %6
  tail call void (ptr, ...) @die(ptr noundef nonnull @.str.38, i64 noundef 208, i64 noundef range(i64 -2147483648, 2147483648) %11) #17
  unreachable

st_mult.exit:                                     ; preds = %6
  %14 = load ptr, ptr @entries, align 8, !tbaa !32
  %15 = mul nuw nsw i64 %11, 208
  %16 = tail call ptr @xrealloc(ptr noundef %14, i64 noundef %15) #16
  store ptr %16, ptr @entries, align 8, !tbaa !32
  %.pre7 = load i32, ptr @entries_nr, align 4, !tbaa !4
  br label %17

17:                                               ; preds = %._crit_edge, %st_mult.exit
  %18 = phi i32 [ %4, %._crit_edge ], [ %.pre7, %st_mult.exit ]
  %19 = phi ptr [ %.pre, %._crit_edge ], [ %16, %st_mult.exit ]
  %20 = add nsw i32 %18, 1
  store i32 %20, ptr @entries_nr, align 4, !tbaa !4
  %21 = sext i32 %18 to i64
  %22 = getelementptr inbounds %struct.credential_cache_entry, ptr %19, i64 %21
  tail call void @llvm.memcpy.p0.p0.i64(ptr noundef nonnull align 8 dereferenceable(200) %22, ptr noundef nonnull align 8 dereferenceable(200) %0, i64 200, i1 false)
  tail call void @llvm.memset.p0.i64(ptr noundef nonnull align 8 dereferenceable(200) %0, i8 0, i64 200, i1 false)
  call void @llvm.lifetime.start.p0(i64 16, ptr nonnull %3) #16
  %23 = call i32 @gettimeofday(ptr noundef nonnull %3, ptr noundef null) #16
  %24 = load i64, ptr %3, align 8, !tbaa !29
  call void @llvm.lifetime.end.p0(i64 16, ptr nonnull %3) #16
  %25 = sext i32 %1 to i64
  %26 = add nsw i64 %24, %25
  %27 = getelementptr inbounds nuw i8, ptr %22, i64 200
  store i64 %26, ptr %27, align 8, !tbaa !34
  ret void
}